; Function Attrs: nounwind uwtable
define hidden void @zim_DOMElement_hasAttribute(ptr nocapture noundef readonly %0, ptr nocapture noundef writeonly %1) local_unnamed_addr #0 {
  %3 = alloca ptr, align 8
  %4 = alloca i64, align 8
  %5 = getelementptr inbounds i8, ptr %0, i64 44
  %6 = load i32, ptr %5, align 4
  %7 = call i32 (i32, ptr, ...) @zend_parse_parameters(i32 noundef %6, ptr noundef nonnull @.str.4, ptr noundef nonnull %3, ptr noundef nonnull %4) #8
  %8 = icmp eq i32 %7, -1
  br i1 %8, label %9, label %12

9:                                                ; preds = %2
  %10 = load ptr, ptr getelementptr inbounds (%struct._zend_executor_globals, ptr @executor_globals, i64 0, i32 50), align 8
  %11 = icmp ne ptr %10, null
  call void @llvm.assume(i1 %11)
  br label %34

12:                                               ; preds = %2
  %13 = getelementptr inbounds i8, ptr %0, i64 32
  %14 = load ptr, ptr %13, align 8
  %15 = getelementptr inbounds i8, ptr %14, i64 -24
  %16 = load ptr, ptr %15, align 8
  %17 = icmp eq ptr %16, null
  br i1 %17, label %18, label %26

18:                                               ; preds = %12
  %19 = getelementptr inbounds i8, ptr %14, i64 16
  %20 = load ptr, ptr %19, align 8
  %21 = getelementptr inbounds i8, ptr %20, i64 8
  %22 = load ptr, ptr %21, align 8
  %23 = getelementptr inbounds i8, ptr %22, i64 24
  call void (ptr, ptr, ...) @zend_throw_error(ptr noundef null, ptr noundef nonnull @.str.5, ptr noundef nonnull %23) #8
  %24 = load ptr, ptr getelementptr inbounds (%struct._zend_executor_globals, ptr @executor_globals, i64 0, i32 50), align 8
  %25 = icmp ne ptr %24, null
  call void @llvm.assume(i1 %25)
  br label %34

26:                                               ; preds = %12
  %27 = load ptr, ptr %16, align 8
  %28 = load ptr, ptr %3, align 8
  %29 = call fastcc ptr @dom_get_dom1_attribute(ptr noundef %27, ptr noundef %28)
  %30 = icmp eq ptr %29, null
  %31 = getelementptr inbounds i8, ptr %1, i64 8
  br i1 %30, label %32, label %33

32:                                               ; preds = %26
  store i32 2, ptr %31, align 8
  br label %34

33:                                               ; preds = %26
  store i32 3, ptr %31, align 8
  br label %34

34:                                               ; preds = %33, %32, %18, %9
  ret void
}